target datalayout = "e-m:e-p270:32:32-p271:32:32-p272:64:64-i64:64-i128:128-f80:128-n8:16:32:64-S128"
target triple = "x86_64-pc-linux-gnu"

%struct._lv_file_explorer_t = type { %struct._lv_obj_t, ptr, ptr, ptr, ptr, ptr, ptr, ptr, ptr, ptr, ptr, ptr, ptr, ptr, ptr, ptr, [128 x i8], i32 }
%struct._lv_obj_t = type { ptr, ptr, ptr, ptr, ptr, %struct.lv_area_t, i32, i16, i16 }
%struct.lv_area_t = type { i32, i32, i32, i32 }

@.str.2 = private unnamed_addr constant [16 x i8] c"\EF\80\9C File System\00", align 1
@.str.4 = private unnamed_addr constant [9 x i8] c"\EF\80\95 HOME\00", align 1
@.str.5 = private unnamed_addr constant [10 x i8] c"\EF\80\88 Video\00", align 1
@.str.6 = private unnamed_addr constant [13 x i8] c"\EF\80\BE Pictures\00", align 1
@.str.7 = private unnamed_addr constant [10 x i8] c"\EF\80\81 Music\00", align 1
@.str.8 = private unnamed_addr constant [15 x i8] c"\EF\85\9B  Documents\00", align 1

; Function Attrs: nounwind uwtable
define internal void @quick_access_event_handler(ptr noundef %0) #0 {
  %2 = alloca ptr, align 8
  %3 = alloca i32, align 4
  %4 = alloca ptr, align 8
  %5 = alloca ptr, align 8
  %6 = alloca ptr, align 8
  %7 = alloca ptr, align 8
  %8 = alloca ptr, align 8
  %9 = alloca ptr, align 8
  store ptr %0, ptr %2, align 8, !tbaa !47
  call void @llvm.lifetime.start.p0(i64 4, ptr %3) #5
  %10 = load ptr, ptr %2, align 8, !tbaa !47
  %11 = call i32 @lv_event_get_code(ptr noundef %10)
  store i32 %11, ptr %3, align 4, !tbaa !35
  call void @llvm.lifetime.start.p0(i64 8, ptr %4) #5
  %12 = load ptr, ptr %2, align 8, !tbaa !47
  %13 = call ptr @lv_event_get_current_target(ptr noundef %12)
  store ptr %13, ptr %4, align 8, !tbaa !8
  call void @llvm.lifetime.start.p0(i64 8, ptr %5) #5
  %14 = load ptr, ptr %2, align 8, !tbaa !47
  %15 = call ptr @lv_event_get_user_data(ptr noundef %14)
  store ptr %15, ptr %5, align 8, !tbaa !8
  call void @llvm.lifetime.start.p0(i64 8, ptr %6) #5
  %16 = load ptr, ptr %5, align 8, !tbaa !8
  store ptr %16, ptr %6, align 8, !tbaa !10
  %17 = load i32, ptr %3, align 4, !tbaa !35
  %18 = icmp eq i32 %17, 10
  br i1 %18, label %19, label %78

19:                                               ; preds = %1
  call void @llvm.lifetime.start.p0(i64 8, ptr %7) #5
  store ptr null, ptr %7, align 8, !tbaa !37
  call void @llvm.lifetime.start.p0(i64 8, ptr %8) #5
  %20 = load ptr, ptr %4, align 8, !tbaa !8
  %21 = call ptr @lv_obj_get_child(ptr noundef %20, i32 noundef -1)
  store ptr %21, ptr %8, align 8, !tbaa !8
  call void @llvm.lifetime.start.p0(i64 8, ptr %9) #5
  %22 = load ptr, ptr %8, align 8, !tbaa !8
  %23 = call ptr @lv_label_get_text(ptr noundef %22)
  store ptr %23, ptr %9, align 8, !tbaa !36
  %24 = load ptr, ptr %9, align 8, !tbaa !36
  %25 = call i32 @lv_strcmp(ptr noundef %24, ptr noundef @.str.4)
  %26 = icmp eq i32 %25, 0
  br i1 %26, label %27, label %30

27:                                               ; preds = %19
  %28 = load ptr, ptr %6, align 8, !tbaa !10
  %29 = getelementptr inbounds nuw %struct._lv_file_explorer_t, ptr %28, i32 0, i32 9
  store ptr %29, ptr %7, align 8, !tbaa !37
  br label %70

30:                                               ; preds = %19
  %31 = load ptr, ptr %9, align 8, !tbaa !36
  %32 = call i32 @lv_strcmp(ptr noundef %31, ptr noundef @.str.5)
  %33 = icmp eq i32 %32, 0
  br i1 %33, label %34, label %37

34:                                               ; preds = %30
  %35 = load ptr, ptr %6, align 8, !tbaa !10
  %36 = getelementptr inbounds nuw %struct._lv_file_explorer_t, ptr %35, i32 0, i32 12
  store ptr %36, ptr %7, align 8, !tbaa !37
  br label %69

37:                                               ; preds = %30
  %38 = load ptr, ptr %9, align 8, !tbaa !36
  %39 = call i32 @lv_strcmp(ptr noundef %38, ptr noundef @.str.6)
  %40 = icmp eq i32 %39, 0
  br i1 %40, label %41, label %44

41:                                               ; preds = %37
  %42 = load ptr, ptr %6, align 8, !tbaa !10
  %43 = getelementptr inbounds nuw %struct._lv_file_explorer_t, ptr %42, i32 0, i32 11
  store ptr %43, ptr %7, align 8, !tbaa !37
  br label %68

44:                                               ; preds = %37
  %45 = load ptr, ptr %9, align 8, !tbaa !36
  %46 = call i32 @lv_strcmp(ptr noundef %45, ptr noundef @.str.7)
  %47 = icmp eq i32 %46, 0
  br i1 %47, label %48, label %51

48:                                               ; preds = %44
  %49 = load ptr, ptr %6, align 8, !tbaa !10
  %50 = getelementptr inbounds nuw %struct._lv_file_explorer_t, ptr %49, i32 0, i32 10
  store ptr %50, ptr %7, align 8, !tbaa !37
  br label %67

51:                                               ; preds = %44
  %52 = load ptr, ptr %9, align 8, !tbaa !36
  %53 = call i32 @lv_strcmp(ptr noundef %52, ptr noundef @.str.8)
  %54 = icmp eq i32 %53, 0
  br i1 %54, label %55, label %58

55:                                               ; preds = %51
  %56 = load ptr, ptr %6, align 8, !tbaa !10
  %57 = getelementptr inbounds nuw %struct._lv_file_explorer_t, ptr %56, i32 0, i32 13
  store ptr %57, ptr %7, align 8, !tbaa !37
  br label %66

58:                                               ; preds = %51
  %59 = load ptr, ptr %9, align 8, !tbaa !36
  %60 = call i32 @lv_strcmp(ptr noundef %59, ptr noundef @.str.2)
  %61 = icmp eq i32 %60, 0
  br i1 %61, label %62, label %65

62:                                               ; preds = %58
  %63 = load ptr, ptr %6, align 8, !tbaa !10
  %64 = getelementptr inbounds nuw %struct._lv_file_explorer_t, ptr %63, i32 0, i32 14
  store ptr %64, ptr %7, align 8, !tbaa !37
  br label %65

65:                                               ; preds = %62, %58
  br label %66

66:                                               ; preds = %65, %55
  br label %67

67:                                               ; preds = %66, %48
  br label %68

68:                                               ; preds = %67, %41
  br label %69

69:                                               ; preds = %68, %34
  br label %70

70:                                               ; preds = %69, %27
  %71 = load ptr, ptr %7, align 8, !tbaa !37
  %72 = icmp ne ptr %71, null
  br i1 %72, label %73, label %77

73:                                               ; preds = %70
  %74 = load ptr, ptr %5, align 8, !tbaa !8
  %75 = load ptr, ptr %7, align 8, !tbaa !37
  %76 = load ptr, ptr %75, align 8, !tbaa !36
  call void @show_dir(ptr noundef %74, ptr noundef %76)
  br label %77

77:                                               ; preds = %73, %70
  call void @llvm.lifetime.end.p0(i64 8, ptr %9) #5
  call void @llvm.lifetime.end.p0(i64 8, ptr %8) #5
  call void @llvm.lifetime.end.p0(i64 8, ptr %7) #5
  br label %78

78:                                               ; preds = %77, %1
  call void @llvm.lifetime.end.p0(i64 8, ptr %6) #5
  call void @llvm.lifetime.end.p0(i64 8, ptr %5) #5
  call void @llvm.lifetime.end.p0(i64 8, ptr %4) #5
  call void @llvm.lifetime.end.p0(i64 4, ptr %3) #5
  ret void
}