; Function Attrs: nounwind uwtable
define internal void @quick_access_event_handler(ptr noundef %0) #0 {
  %2 = tail call i32 @lv_event_get_code(ptr noundef %0) #6
  %3 = tail call ptr @lv_event_get_current_target(ptr noundef %0) #6
  %4 = tail call ptr @lv_event_get_user_data(ptr noundef %0) #6
  %5 = icmp eq i32 %2, 10
  br i1 %5, label %6, label %38

6:                                                ; preds = %1
  %7 = tail call ptr @lv_obj_get_child(ptr noundef %3, i32 noundef -1) #6
  %8 = tail call ptr @lv_label_get_text(ptr noundef %7) #6
  %9 = tail call i32 @lv_strcmp(ptr noundef %8, ptr noundef nonnull @.str.4) #6
  %10 = icmp eq i32 %9, 0
  br i1 %10, label %11, label %13

11:                                               ; preds = %6
  %12 = getelementptr inbounds nuw i8, ptr %4, i64 128
  br label %select.unfold

13:                                               ; preds = %6
  %14 = tail call i32 @lv_strcmp(ptr noundef %8, ptr noundef nonnull @.str.5) #6
  %15 = icmp eq i32 %14, 0
  br i1 %15, label %16, label %18

16:                                               ; preds = %13
  %17 = getelementptr inbounds nuw i8, ptr %4, i64 152
  br label %select.unfold

18:                                               ; preds = %13
  %19 = tail call i32 @lv_strcmp(ptr noundef %8, ptr noundef nonnull @.str.6) #6
  %20 = icmp eq i32 %19, 0
  br i1 %20, label %21, label %23

21:                                               ; preds = %18
  %22 = getelementptr inbounds nuw i8, ptr %4, i64 144
  br label %select.unfold

23:                                               ; preds = %18
  %24 = tail call i32 @lv_strcmp(ptr noundef %8, ptr noundef nonnull @.str.7) #6
  %25 = icmp eq i32 %24, 0
  br i1 %25, label %26, label %28

26:                                               ; preds = %23
  %27 = getelementptr inbounds nuw i8, ptr %4, i64 136
  br label %select.unfold

28:                                               ; preds = %23
  %29 = tail call i32 @lv_strcmp(ptr noundef %8, ptr noundef nonnull @.str.8) #6
  %30 = icmp eq i32 %29, 0
  br i1 %30, label %31, label %33

31:                                               ; preds = %28
  %32 = getelementptr inbounds nuw i8, ptr %4, i64 160
  br label %select.unfold

33:                                               ; preds = %28
  %34 = tail call i32 @lv_strcmp(ptr noundef %8, ptr noundef nonnull @.str.2) #6
  %35 = icmp eq i32 %34, 0
  %36 = getelementptr inbounds nuw i8, ptr %4, i64 168
  br i1 %35, label %select.unfold, label %38

select.unfold:                                    ; preds = %33, %11, %16, %21, %26, %31
  %.0.ph = phi ptr [ %32, %31 ], [ %27, %26 ], [ %22, %21 ], [ %17, %16 ], [ %12, %11 ], [ %36, %33 ]
  %37 = load ptr, ptr %.0.ph, align 8, !tbaa !28
  tail call fastcc void @show_dir(ptr noundef %4, ptr noundef %37)
  br label %38

38:                                               ; preds = %33, %select.unfold, %1
  ret void
}